target datalayout = "e-m:e-p270:32:32-p271:32:32-p272:64:64-i64:64-i128:128-f80:128-n8:16:32:64-S128"
target triple = "x86_64-pc-linux-gnu"

%class.ListEntry = type <{ %class.JfrHashtableEntry, ptr, i8, i8, i8, [5 x i8] }>
%class.JfrHashtableEntry = type { %class.JfrBasicHashtableEntry, i64 }
%class.JfrBasicHashtableEntry = type { ptr, ptr, i64 }

@_ZL9bootstrap = internal global ptr null, align 8

; Function Attrs: mustprogress nounwind uwtable
define linkonce_odr hidden noundef i64 @_ZNK17JfrHashtableEntryIPKcmE2idEv(ptr noundef nonnull align 8 dereferenceable(32) %0) #1 comdat align 2 {
  %2 = alloca ptr, align 8
  store ptr %0, ptr %2, align 8
  %3 = load ptr, ptr %2, align 8
  %4 = getelementptr inbounds %class.JfrHashtableEntry, ptr %3, i32 0, i32 1
  %5 = load i64, ptr %4, align 8
  ret i64 %5
}

; Function Attrs: mustprogress nounwind uwtable
define linkonce_odr hidden void @_ZNK9ListEntryIPKcmE9set_leakpEv(ptr noundef nonnull align 8 dereferenceable(43) %0) #1 comdat align 2 {
  %2 = alloca ptr, align 8
  store ptr %0, ptr %2, align 8
  %3 = load ptr, ptr %2, align 8
  %4 = getelementptr inbounds %class.ListEntry, ptr %3, i32 0, i32 4
  store i8 1, ptr %4, align 2
  ret void
}

; Function Attrs: mustprogress nounwind uwtable
define hidden noundef i64 @_ZN14JfrSymbolTable14bootstrap_nameEb(ptr noundef nonnull align 8 dereferenceable(57) %0, i1 noundef zeroext %1) #1 align 2 {
  %3 = alloca ptr, align 8
  %4 = alloca i8, align 1
  store ptr %0, ptr %3, align 8
  %5 = zext i1 %1 to i8
  store i8 %5, ptr %4, align 1
  %6 = load i8, ptr %4, align 1
  %7 = trunc i8 %6 to i1
  br i1 %7, label %8, label %10

8:                                                ; preds = %2
  %9 = load ptr, ptr @_ZL9bootstrap, align 8
  call void @_ZNK9ListEntryIPKcmE9set_leakpEv(ptr noundef nonnull align 8 dereferenceable(43) %9)
  br label %10

10:                                               ; preds = %8, %2
  %11 = load ptr, ptr @_ZL9bootstrap, align 8
  %12 = call noundef i64 @_ZNK17JfrHashtableEntryIPKcmE2idEv(ptr noundef nonnull align 8 dereferenceable(32) %11)
  ret i64 %12
}