; Function Attrs: mustprogress nofree norecurse nosync nounwind willreturn memory(readwrite, inaccessiblemem: none) uwtable
define hidden noundef i64 @_ZN14JfrSymbolTable14bootstrap_nameEb(ptr nocapture noundef nonnull readnone align 8 dereferenceable(57) %0, i1 noundef zeroext %1) local_unnamed_addr #7 align 2 {
  %.pre = load ptr, ptr @_ZL9bootstrap, align 8
  br i1 %1, label %3, label %5

3:                                                ; preds = %2
  %4 = getelementptr inbounds i8, ptr %.pre, i64 42
  store i8 1, ptr %4, align 2
  br label %5

5:                                                ; preds = %3, %2
  %6 = getelementptr inbounds i8, ptr %.pre, i64 24
  %7 = load i64, ptr %6, align 8
  ret i64 %7
}